target datalayout = "e-m:e-p270:32:32-p271:32:32-p272:64:64-i64:64-i128:128-f80:128-n8:16:32:64-S128"
target triple = "x86_64-pc-linux-gnu"

%struct.H5C_class_t = type { i32, ptr, i32, i32, ptr, ptr, ptr, ptr, ptr, ptr, ptr, ptr, ptr, ptr }
%struct.H5FS_t = type { %struct.H5C_cache_entry_t, i64, i64, i64, i64, i32, i16, i32, i32, i32, i64, i64, i64, i64, i32, i64, i64, ptr, i8, i32, i8, i8, i32, i64, i64, i64, ptr }
%struct.H5C_cache_entry_t = type { ptr, i64, i64, ptr, i8, ptr, i8, i8, i8, i8, i32, i8, i8, i8, i8, i8, i32, ptr, i32, i32, i32, i32, i32, i8, i8, ptr, ptr, ptr, ptr, ptr, ptr, i8, i32, i8, i64, ptr, i64, i64, i32, i8, i32, i32, i8, ptr, ptr, ptr }
%struct.H5FS_sinfo_cache_ud_t = type { ptr, ptr }

@.str.3 = private unnamed_addr constant [105 x i8] c"generated/home/dtcxzyw/WorkSpace/Projects/compilers/llvm-opt-benchmark/bench/hdf5/hdf5/src/H5FSsection.c\00", align 1
@H5E_FSPACE_g = external global i64, align 8
@H5E_CANTCREATE_g = external global i64, align 8
@H5AC_FSPACE_SINFO = external constant [1 x %struct.H5C_class_t], align 16
@__func__.H5FS__sinfo_lock = private unnamed_addr constant [17 x i8] c"H5FS__sinfo_lock\00", align 1
@H5E_CANTUNPROTECT_g = external global i64, align 8
@.str.32 = private unnamed_addr constant [42 x i8] c"unable to release free space section info\00", align 1
@H5E_CANTPROTECT_g = external global i64, align 8
@.str.33 = private unnamed_addr constant [35 x i8] c"unable to load free space sections\00", align 1
@.str.34 = private unnamed_addr constant [26 x i8] c"can't create section info\00", align 1

; Function Attrs: nounwind uwtable
define internal i32 @H5FS__sinfo_lock(ptr noundef %0, ptr noundef %1, i32 noundef %2) #0 {
  %4 = alloca ptr, align 8
  %5 = alloca ptr, align 8
  %6 = alloca i32, align 4
  %7 = alloca %struct.H5FS_sinfo_cache_ud_t, align 8
  %8 = alloca i32, align 4
  %9 = alloca i8, align 1
  store ptr %0, ptr %4, align 8
  store ptr %1, ptr %5, align 8
  store i32 %2, ptr %6, align 4
  store i32 0, ptr %8, align 4
  store i8 0, ptr %9, align 1
  %10 = load ptr, ptr %5, align 8
  %11 = getelementptr inbounds %struct.H5FS_t, ptr %10, i32 0, i32 17
  %12 = load ptr, ptr %11, align 8
  %13 = icmp ne ptr %12, null
  br i1 %13, label %14, label %87

14:                                               ; preds = %3
  %15 = load ptr, ptr %5, align 8
  %16 = getelementptr inbounds %struct.H5FS_t, ptr %15, i32 0, i32 20
  %17 = load i8, ptr %16, align 8
  %18 = trunc i8 %17 to i1
  br i1 %18, label %19, label %86

19:                                               ; preds = %14
  %20 = load i32, ptr %6, align 4
  %21 = load ptr, ptr %5, align 8
  %22 = getelementptr inbounds %struct.H5FS_t, ptr %21, i32 0, i32 22
  %23 = load i32, ptr %22, align 4
  %24 = icmp ne i32 %20, %23
  br i1 %24, label %25, label %86

25:                                               ; preds = %19
  %26 = load i32, ptr %6, align 4
  %27 = and i32 %26, -129
  %28 = icmp eq i32 0, %27
  br i1 %28, label %29, label %85

29:                                               ; preds = %25
  %30 = load ptr, ptr %4, align 8
  %31 = load ptr, ptr %5, align 8
  %32 = getelementptr inbounds %struct.H5FS_t, ptr %31, i32 0, i32 11
  %33 = load i64, ptr %32, align 8
  %34 = load ptr, ptr %5, align 8
  %35 = getelementptr inbounds %struct.H5FS_t, ptr %34, i32 0, i32 17
  %36 = load ptr, ptr %35, align 8
  %37 = call i32 @H5AC_unprotect(ptr noundef %30, ptr noundef @H5AC_FSPACE_SINFO, i64 noundef %33, ptr noundef %36, i32 noundef 0)
  %38 = icmp slt i32 %37, 0
  br i1 %38, label %39, label %54

39:                                               ; preds = %29
  br label %40

40:                                               ; preds = %39
  br label %41

41:                                               ; preds = %40
  br label %42

42:                                               ; preds = %41
  %43 = load i64, ptr @H5E_FSPACE_g, align 8
  %44 = load i64, ptr @H5E_CANTUNPROTECT_g, align 8
  %45 = call i32 (ptr, ptr, i32, i64, i64, ptr, ...) @H5E_printf_stack(ptr noundef @.str.3, ptr noundef @__func__.H5FS__sinfo_lock, i32 noundef 226, i64 noundef %43, i64 noundef %44, ptr noundef @.str.32)
  br label %46

46:                                               ; preds = %42
  store i8 1, ptr %9, align 1
  %47 = load i8, ptr %9, align 1
  %48 = trunc i8 %47 to i1
  %49 = zext i1 %48 to i8
  store i8 %49, ptr %9, align 1
  br label %50

50:                                               ; preds = %46
  br label %51

51:                                               ; preds = %50
  store i32 -1, ptr %8, align 4
  br label %160

52:                                               ; No predecessors!
  br label %53

53:                                               ; preds = %52
  br label %54

54:                                               ; preds = %53, %29
  %55 = load ptr, ptr %4, align 8
  %56 = getelementptr inbounds %struct.H5FS_sinfo_cache_ud_t, ptr %7, i32 0, i32 0
  store ptr %55, ptr %56, align 8
  %57 = load ptr, ptr %5, align 8
  %58 = getelementptr inbounds %struct.H5FS_sinfo_cache_ud_t, ptr %7, i32 0, i32 1
  store ptr %57, ptr %58, align 8
  %59 = load ptr, ptr %4, align 8
  %60 = load ptr, ptr %5, align 8
  %61 = getelementptr inbounds %struct.H5FS_t, ptr %60, i32 0, i32 11
  %62 = load i64, ptr %61, align 8
  %63 = call ptr @H5AC_protect(ptr noundef %59, ptr noundef @H5AC_FSPACE_SINFO, i64 noundef %62, ptr noundef %7, i32 noundef 0)
  %64 = load ptr, ptr %5, align 8
  %65 = getelementptr inbounds %struct.H5FS_t, ptr %64, i32 0, i32 17
  store ptr %63, ptr %65, align 8
  %66 = icmp eq ptr null, %63
  br i1 %66, label %67, label %82

67:                                               ; preds = %54
  br label %68

68:                                               ; preds = %67
  br label %69

69:                                               ; preds = %68
  br label %70

70:                                               ; preds = %69
  %71 = load i64, ptr @H5E_FSPACE_g, align 8
  %72 = load i64, ptr @H5E_CANTPROTECT_g, align 8
  %73 = call i32 (ptr, ptr, i32, i64, i64, ptr, ...) @H5E_printf_stack(ptr noundef @.str.3, ptr noundef @__func__.H5FS__sinfo_lock, i32 noundef 233, i64 noundef %71, i64 noundef %72, ptr noundef @.str.33)
  br label %74

74:                                               ; preds = %70
  store i8 1, ptr %9, align 1
  %75 = load i8, ptr %9, align 1
  %76 = trunc i8 %75 to i1
  %77 = zext i1 %76 to i8
  store i8 %77, ptr %9, align 1
  br label %78

78:                                               ; preds = %74
  br label %79

79:                                               ; preds = %78
  store i32 -1, ptr %8, align 4
  br label %160

80:                                               ; No predecessors!
  br label %81

81:                                               ; preds = %80
  br label %82

82:                                               ; preds = %81, %54
  %83 = load ptr, ptr %5, align 8
  %84 = getelementptr inbounds %struct.H5FS_t, ptr %83, i32 0, i32 22
  store i32 0, ptr %84, align 4
  br label %85

85:                                               ; preds = %82, %25
  br label %86

86:                                               ; preds = %85, %19, %14
  br label %155

87:                                               ; preds = %3
  %88 = load ptr, ptr %5, align 8
  %89 = getelementptr inbounds %struct.H5FS_t, ptr %88, i32 0, i32 11
  %90 = load i64, ptr %89, align 8
  %91 = icmp ne i64 %90, -1
  br i1 %91, label %92, label %127

92:                                               ; preds = %87
  %93 = load ptr, ptr %4, align 8
  %94 = getelementptr inbounds %struct.H5FS_sinfo_cache_ud_t, ptr %7, i32 0, i32 0
  store ptr %93, ptr %94, align 8
  %95 = load ptr, ptr %5, align 8
  %96 = getelementptr inbounds %struct.H5FS_sinfo_cache_ud_t, ptr %7, i32 0, i32 1
  store ptr %95, ptr %96, align 8
  %97 = load ptr, ptr %4, align 8
  %98 = load ptr, ptr %5, align 8
  %99 = getelementptr inbounds %struct.H5FS_t, ptr %98, i32 0, i32 11
  %100 = load i64, ptr %99, align 8
  %101 = load i32, ptr %6, align 4
  %102 = call ptr @H5AC_protect(ptr noundef %97, ptr noundef @H5AC_FSPACE_SINFO, i64 noundef %100, ptr noundef %7, i32 noundef %101)
  %103 = load ptr, ptr %5, align 8
  %104 = getelementptr inbounds %struct.H5FS_t, ptr %103, i32 0, i32 17
  store ptr %102, ptr %104, align 8
  %105 = icmp eq ptr null, %102
  br i1 %105, label %106, label %121

106:                                              ; preds = %92
  br label %107

107:                                              ; preds = %106
  br label %108

108:                                              ; preds = %107
  br label %109

109:                                              ; preds = %108
  %110 = load i64, ptr @H5E_FSPACE_g, align 8
  %111 = load i64, ptr @H5E_CANTPROTECT_g, align 8
  %112 = call i32 (ptr, ptr, i32, i64, i64, ptr, ...) @H5E_printf_stack(ptr noundef @.str.3, ptr noundef @__func__.H5FS__sinfo_lock, i32 noundef 256, i64 noundef %110, i64 noundef %111, ptr noundef @.str.33)
  br label %113

113:                                              ; preds = %109
  store i8 1, ptr %9, align 1
  %114 = load i8, ptr %9, align 1
  %115 = trunc i8 %114 to i1
  %116 = zext i1 %115 to i8
  store i8 %116, ptr %9, align 1
  br label %117

117:                                              ; preds = %113
  br label %118

118:                                              ; preds = %117
  store i32 -1, ptr %8, align 4
  br label %160

119:                                              ; No predecessors!
  br label %120

120:                                              ; preds = %119
  br label %121

121:                                              ; preds = %120, %92
  %122 = load ptr, ptr %5, align 8
  %123 = getelementptr inbounds %struct.H5FS_t, ptr %122, i32 0, i32 20
  store i8 1, ptr %123, align 8
  %124 = load i32, ptr %6, align 4
  %125 = load ptr, ptr %5, align 8
  %126 = getelementptr inbounds %struct.H5FS_t, ptr %125, i32 0, i32 22
  store i32 %124, ptr %126, align 4
  br label %154

127:                                              ; preds = %87
  %128 = load ptr, ptr %4, align 8
  %129 = load ptr, ptr %5, align 8
  %130 = call ptr @H5FS__sinfo_new(ptr noundef %128, ptr noundef %129)
  %131 = load ptr, ptr %5, align 8
  %132 = getelementptr inbounds %struct.H5FS_t, ptr %131, i32 0, i32 17
  store ptr %130, ptr %132, align 8
  %133 = icmp eq ptr null, %130
  br i1 %133, label %134, label %149

134:                                              ; preds = %127
  br label %135

135:                                              ; preds = %134
  br label %136

136:                                              ; preds = %135
  br label %137

137:                                              ; preds = %136
  %138 = load i64, ptr @H5E_FSPACE_g, align 8
  %139 = load i64, ptr @H5E_CANTCREATE_g, align 8
  %140 = call i32 (ptr, ptr, i32, i64, i64, ptr, ...) @H5E_printf_stack(ptr noundef @.str.3, ptr noundef @__func__.H5FS__sinfo_lock, i32 noundef 273, i64 noundef %138, i64 noundef %139, ptr noundef @.str.34)
  br label %141

141:                                              ; preds = %137
  store i8 1, ptr %9, align 1
  %142 = load i8, ptr %9, align 1
  %143 = trunc i8 %142 to i1
  %144 = zext i1 %143 to i8
  store i8 %144, ptr %9, align 1
  br label %145

145:                                              ; preds = %141
  br label %146

146:                                              ; preds = %145
  store i32 -1, ptr %8, align 4
  br label %160

147:                                              ; No predecessors!
  br label %148

148:                                              ; preds = %147
  br label %149

149:                                              ; preds = %148, %127
  %150 = load ptr, ptr %5, align 8
  %151 = getelementptr inbounds %struct.H5FS_t, ptr %150, i32 0, i32 13
  store i64 0, ptr %151, align 8
  %152 = load ptr, ptr %5, align 8
  %153 = getelementptr inbounds %struct.H5FS_t, ptr %152, i32 0, i32 12
  store i64 0, ptr %153, align 8
  br label %154

154:                                              ; preds = %149, %121
  br label %155

155:                                              ; preds = %154, %86
  %156 = load ptr, ptr %5, align 8
  %157 = getelementptr inbounds %struct.H5FS_t, ptr %156, i32 0, i32 19
  %158 = load i32, ptr %157, align 4
  %159 = add i32 %158, 1
  store i32 %159, ptr %157, align 4
  br label %160

160:                                              ; preds = %155, %146, %118, %79, %51
  %161 = load i32, ptr %8, align 4
  ret i32 %161
}