; Function Attrs: nounwind uwtable
define internal fastcc range(i32 -1, 1) i32 @H5FS__sinfo_lock(ptr noundef %0, ptr noundef %1, i32 noundef %2) unnamed_addr #0 {
  %4 = alloca %struct.H5FS_sinfo_cache_ud_t, align 8
  %5 = getelementptr inbounds i8, ptr %1, i64 360
  %6 = load ptr, ptr %5, align 8
  %.not = icmp eq ptr %6, null
  br i1 %.not, label %35, label %7

7:                                                ; preds = %3
  %8 = getelementptr inbounds i8, ptr %1, i64 376
  %9 = load i8, ptr %8, align 8
  %10 = trunc i8 %9 to i1
  br i1 %10, label %11, label %58

11:                                               ; preds = %7
  %12 = getelementptr inbounds i8, ptr %1, i64 380
  %13 = load i32, ptr %12, align 4
  %.not37 = icmp ne i32 %13, %2
  %14 = and i32 %2, -129
  %15 = icmp eq i32 %14, 0
  %or.cond = and i1 %15, %.not37
  br i1 %or.cond, label %16, label %58

16:                                               ; preds = %11
  %17 = getelementptr inbounds i8, ptr %1, i64 312
  %18 = load i64, ptr %17, align 8
  %19 = tail call i32 @H5AC_unprotect(ptr noundef %0, ptr noundef nonnull @H5AC_FSPACE_SINFO, i64 noundef %18, ptr noundef nonnull %6, i32 noundef 0) #6
  %20 = icmp slt i32 %19, 0
  br i1 %20, label %21, label %25

21:                                               ; preds = %16
  %22 = load i64, ptr @H5E_FSPACE_g, align 8
  %23 = load i64, ptr @H5E_CANTUNPROTECT_g, align 8
  %24 = tail call i32 (ptr, ptr, i32, i64, i64, ptr, ...) @H5E_printf_stack(ptr noundef nonnull @.str.3, ptr noundef nonnull @__func__.H5FS__sinfo_lock, i32 noundef 226, i64 noundef %22, i64 noundef %23, ptr noundef nonnull @.str.32) #6
  br label %62

25:                                               ; preds = %16
  store ptr %0, ptr %4, align 8
  %26 = getelementptr inbounds i8, ptr %4, i64 8
  store ptr %1, ptr %26, align 8
  %27 = load i64, ptr %17, align 8
  %28 = call ptr @H5AC_protect(ptr noundef %0, ptr noundef nonnull @H5AC_FSPACE_SINFO, i64 noundef %27, ptr noundef nonnull %4, i32 noundef 0) #6
  store ptr %28, ptr %5, align 8
  %29 = icmp eq ptr %28, null
  br i1 %29, label %30, label %34

30:                                               ; preds = %25
  %31 = load i64, ptr @H5E_FSPACE_g, align 8
  %32 = load i64, ptr @H5E_CANTPROTECT_g, align 8
  %33 = call i32 (ptr, ptr, i32, i64, i64, ptr, ...) @H5E_printf_stack(ptr noundef nonnull @.str.3, ptr noundef nonnull @__func__.H5FS__sinfo_lock, i32 noundef 233, i64 noundef %31, i64 noundef %32, ptr noundef nonnull @.str.33) #6
  br label %62

34:                                               ; preds = %25
  store i32 0, ptr %12, align 4
  br label %58

35:                                               ; preds = %3
  %36 = getelementptr inbounds i8, ptr %1, i64 312
  %37 = load i64, ptr %36, align 8
  %.not36 = icmp eq i64 %37, -1
  br i1 %.not36, label %49, label %38

38:                                               ; preds = %35
  store ptr %0, ptr %4, align 8
  %39 = getelementptr inbounds i8, ptr %4, i64 8
  store ptr %1, ptr %39, align 8
  %40 = call ptr @H5AC_protect(ptr noundef %0, ptr noundef nonnull @H5AC_FSPACE_SINFO, i64 noundef %37, ptr noundef nonnull %4, i32 noundef %2) #6
  store ptr %40, ptr %5, align 8
  %41 = icmp eq ptr %40, null
  br i1 %41, label %42, label %46

42:                                               ; preds = %38
  %43 = load i64, ptr @H5E_FSPACE_g, align 8
  %44 = load i64, ptr @H5E_CANTPROTECT_g, align 8
  %45 = call i32 (ptr, ptr, i32, i64, i64, ptr, ...) @H5E_printf_stack(ptr noundef nonnull @.str.3, ptr noundef nonnull @__func__.H5FS__sinfo_lock, i32 noundef 256, i64 noundef %43, i64 noundef %44, ptr noundef nonnull @.str.33) #6
  br label %62

46:                                               ; preds = %38
  %47 = getelementptr inbounds i8, ptr %1, i64 376
  store i8 1, ptr %47, align 8
  %48 = getelementptr inbounds i8, ptr %1, i64 380
  store i32 %2, ptr %48, align 4
  br label %58

49:                                               ; preds = %35
  %50 = tail call ptr @H5FS__sinfo_new(ptr noundef %0, ptr noundef nonnull %1)
  store ptr %50, ptr %5, align 8
  %51 = icmp eq ptr %50, null
  br i1 %51, label %52, label %56

52:                                               ; preds = %49
  %53 = load i64, ptr @H5E_FSPACE_g, align 8
  %54 = load i64, ptr @H5E_CANTCREATE_g, align 8
  %55 = tail call i32 (ptr, ptr, i32, i64, i64, ptr, ...) @H5E_printf_stack(ptr noundef nonnull @.str.3, ptr noundef nonnull @__func__.H5FS__sinfo_lock, i32 noundef 273, i64 noundef %53, i64 noundef %54, ptr noundef nonnull @.str.34) #6
  br label %62

56:                                               ; preds = %49
  %57 = getelementptr inbounds i8, ptr %1, i64 320
  tail call void @llvm.memset.p0.i64(ptr noundef nonnull align 8 dereferenceable(16) %57, i8 0, i64 16, i1 false)
  br label %58

58:                                               ; preds = %46, %56, %7, %11, %34
  %59 = getelementptr inbounds i8, ptr %1, i64 372
  %60 = load i32, ptr %59, align 4
  %61 = add i32 %60, 1
  store i32 %61, ptr %59, align 4
  br label %62

62:                                               ; preds = %58, %52, %42, %30, %21
  %.0 = phi i32 [ -1, %21 ], [ -1, %30 ], [ 0, %58 ], [ -1, %42 ], [ -1, %52 ]
  ret i32 %.0
}